; Function Attrs: mustprogress nounwind uwtable
define internal void @_ZNSt17_Function_handlerIFN4llvm5ErrorERKN12_GLOBAL__N_111FileHandler10BundleInfoEEZNS3_13listBundleIDsERNS0_12MemoryBufferEEUlS6_E_E9_M_invokeERKSt9_Any_dataS6_(ptr dead_on_unwind noalias nocapture writable writeonly sret(%"class.llvm::Error") align 8 %0, ptr nocapture noundef nonnull readonly align 8 dereferenceable(16) %1, ptr noundef nonnull align 8 dereferenceable(16) %2) #3 align 2 {
  %4 = load ptr, ptr %1, align 8, !noalias !447
  %5 = tail call noundef nonnull align 8 dereferenceable(96) ptr @_ZN4llvm4outsEv() #24, !noalias !447
  %.sroa.0.0.copyload.i.i.i = load ptr, ptr %2, align 8, !noalias !447
  %.sroa.2.0..sroa_idx.i.i.i = getelementptr inbounds i8, ptr %2, i64 8
  %.sroa.2.0.copyload.i.i.i = load i64, ptr %.sroa.2.0..sroa_idx.i.i.i, align 8, !noalias !447
  %6 = getelementptr inbounds nuw i8, ptr %5, i64 24
  %7 = load ptr, ptr %6, align 8, !noalias !447
  %8 = getelementptr inbounds nuw i8, ptr %5, i64 32
  %9 = load ptr, ptr %8, align 8, !noalias !447
  %10 = ptrtoint ptr %7 to i64
  %11 = ptrtoint ptr %9 to i64
  %12 = sub i64 %10, %11
  %13 = icmp ugt i64 %.sroa.2.0.copyload.i.i.i, %12
  br i1 %13, label %14, label %16

14:                                               ; preds = %3
  %15 = tail call noundef nonnull align 8 dereferenceable(48) ptr @_ZN4llvm11raw_ostream5writeEPKcm(ptr noundef nonnull align 8 dereferenceable(48) %5, ptr noundef %.sroa.0.0.copyload.i.i.i, i64 noundef %.sroa.2.0.copyload.i.i.i) #24, !noalias !447
  %.phi.trans.insert.i.i.i = getelementptr inbounds nuw i8, ptr %15, i64 32
  %.pre.i.i.i = load ptr, ptr %.phi.trans.insert.i.i.i, align 8, !noalias !447
  br label %_ZN4llvm11raw_ostreamlsENS_9StringRefE.exit.i.i.i

16:                                               ; preds = %3
  %.not.i.i.i.i = icmp eq i64 %.sroa.2.0.copyload.i.i.i, 0
  br i1 %.not.i.i.i.i, label %_ZN4llvm11raw_ostreamlsENS_9StringRefE.exit.i.i.i, label %17

17:                                               ; preds = %16
  tail call void @llvm.memcpy.p0.p0.i64(ptr align 1 %9, ptr align 1 %.sroa.0.0.copyload.i.i.i, i64 %.sroa.2.0.copyload.i.i.i, i1 false), !noalias !447
  %18 = load ptr, ptr %8, align 8, !noalias !447
  %19 = getelementptr inbounds i8, ptr %18, i64 %.sroa.2.0.copyload.i.i.i
  store ptr %19, ptr %8, align 8, !noalias !447
  br label %_ZN4llvm11raw_ostreamlsENS_9StringRefE.exit.i.i.i

_ZN4llvm11raw_ostreamlsENS_9StringRefE.exit.i.i.i: ; preds = %17, %16, %14
  %20 = phi ptr [ %.pre.i.i.i, %14 ], [ %19, %17 ], [ %9, %16 ]
  %.0.i.i.i.i = phi ptr [ %15, %14 ], [ %5, %17 ], [ %5, %16 ]
  %21 = getelementptr inbounds nuw i8, ptr %.0.i.i.i.i, i64 24
  %22 = load ptr, ptr %21, align 8, !noalias !447
  %.not.i3.i.i.i = icmp ult ptr %20, %22
  br i1 %.not.i3.i.i.i, label %25, label %23

23:                                               ; preds = %_ZN4llvm11raw_ostreamlsENS_9StringRefE.exit.i.i.i
  %24 = tail call noundef nonnull align 8 dereferenceable(48) ptr @_ZN4llvm11raw_ostream5writeEh(ptr noundef nonnull align 8 dereferenceable(48) %.0.i.i.i.i, i8 noundef zeroext 10) #24, !noalias !447
  br label %_ZSt10__invoke_rIN4llvm5ErrorERZN12_GLOBAL__N_111FileHandler13listBundleIDsERNS0_12MemoryBufferEEUlRKNS3_10BundleInfoEE_JS8_EENSt9enable_ifIX16is_invocable_r_vIT_T0_DpT1_EESC_E4typeEOSD_DpOSE_.exit

25:                                               ; preds = %_ZN4llvm11raw_ostreamlsENS_9StringRefE.exit.i.i.i
  %26 = getelementptr inbounds nuw i8, ptr %.0.i.i.i.i, i64 32
  %27 = getelementptr inbounds i8, ptr %20, i64 1
  store ptr %27, ptr %26, align 8, !noalias !447
  store i8 10, ptr %20, align 1, !noalias !447
  br label %_ZSt10__invoke_rIN4llvm5ErrorERZN12_GLOBAL__N_111FileHandler13listBundleIDsERNS0_12MemoryBufferEEUlRKNS3_10BundleInfoEE_JS8_EENSt9enable_ifIX16is_invocable_r_vIT_T0_DpT1_EESC_E4typeEOSD_DpOSE_.exit

_ZSt10__invoke_rIN4llvm5ErrorERZN12_GLOBAL__N_111FileHandler13listBundleIDsERNS0_12MemoryBufferEEUlRKNS3_10BundleInfoEE_JS8_EENSt9enable_ifIX16is_invocable_r_vIT_T0_DpT1_EESC_E4typeEOSD_DpOSE_.exit: ; preds = %23, %25
  %28 = getelementptr inbounds nuw i8, ptr %1, i64 8
  %29 = load ptr, ptr %28, align 8, !noalias !447
  %30 = load ptr, ptr %4, align 8, !noalias !447
  %31 = getelementptr inbounds i8, ptr %30, i64 104
  %32 = load ptr, ptr %31, align 8, !noalias !447
  tail call void %32(ptr dead_on_unwind nonnull writable sret(%"class.llvm::Error") align 8 %0, ptr noundef nonnull align 8 dereferenceable(8) %4, ptr noundef nonnull align 8 dereferenceable(24) %29, ptr noundef nonnull align 8 dereferenceable(16) %2) #24
  ret void
}